target datalayout = "e-m:e-p270:32:32-p271:32:32-p272:64:64-i64:64-i128:128-f80:128-n8:16:32:64-S128"
target triple = "x86_64-pc-linux-gnu"

%class.LIR_Opr = type { i64 }
%class.GrowableArrayBase = type { i32, i32 }
%class.GrowableArrayMetadata = type { i64 }
%class.Interval = type { i32, i8, ptr, %class.GrowableArray.21, ptr, ptr, i32, i32, i32, i32, %class.LIR_Opr, ptr, ptr, ptr, ptr, i32, i8, i32, i32, ptr }
%class.GrowableArray.21 = type { %class.GrowableArrayWithAllocator.22, %class.GrowableArrayMetadata }
%class.GrowableArrayWithAllocator.22 = type { %class.GrowableArrayView.23 }
%class.GrowableArrayView.23 = type { %class.GrowableArrayBase, ptr }
%class.Range = type { i32, i32, ptr }

; Function Attrs: mustprogress nounwind uwtable
define linkonce_odr hidden noundef i32 @_ZNK5Range4fromEv(ptr noundef nonnull align 8 dereferenceable(16) %0) #1 comdat align 2 {
  %2 = alloca ptr, align 8
  store ptr %0, ptr %2, align 8
  %3 = load ptr, ptr %2, align 8
  %4 = getelementptr inbounds %class.Range, ptr %3, i32 0, i32 0
  %5 = load i32, ptr %4, align 8
  ret i32 %5
}

; Function Attrs: mustprogress nounwind uwtable
define linkonce_odr hidden noundef nonnull align 4 dereferenceable(4) ptr @_ZNK17GrowableArrayViewIiE2atEi(ptr noundef nonnull align 8 dereferenceable(16) %0, i32 noundef %1) #1 comdat align 2 {
  %3 = alloca ptr, align 8
  %4 = alloca i32, align 4
  store ptr %0, ptr %3, align 8
  store i32 %1, ptr %4, align 4
  %5 = load ptr, ptr %3, align 8
  %6 = getelementptr inbounds %class.GrowableArrayView.23, ptr %5, i32 0, i32 1
  %7 = load ptr, ptr %6, align 8
  %8 = load i32, ptr %4, align 4
  %9 = sext i32 %8 to i64
  %10 = getelementptr inbounds i32, ptr %7, i64 %9
  ret ptr %10
}

; Function Attrs: mustprogress nounwind uwtable
define linkonce_odr hidden noundef i32 @_ZNK17GrowableArrayBase6lengthEv(ptr noundef nonnull align 4 dereferenceable(8) %0) #1 comdat align 2 {
  %2 = alloca ptr, align 8
  store ptr %0, ptr %2, align 8
  %3 = load ptr, ptr %2, align 8
  %4 = getelementptr inbounds %class.GrowableArrayBase, ptr %3, i32 0, i32 0
  %5 = load i32, ptr %4, align 4
  ret i32 %5
}

; Function Attrs: mustprogress nounwind uwtable
define linkonce_odr hidden noundef i32 @_Z4MAX2IiET_S0_S0_(i32 noundef %0, i32 noundef %1) #1 comdat {
  %3 = alloca i32, align 4
  %4 = alloca i32, align 4
  store i32 %0, ptr %3, align 4
  store i32 %1, ptr %4, align 4
  %5 = load i32, ptr %3, align 4
  %6 = load i32, ptr %4, align 4
  %7 = icmp sgt i32 %5, %6
  br i1 %7, label %8, label %10

8:                                                ; preds = %2
  %9 = load i32, ptr %3, align 4
  br label %12

10:                                               ; preds = %2
  %11 = load i32, ptr %4, align 4
  br label %12

12:                                               ; preds = %10, %8
  %13 = phi i32 [ %9, %8 ], [ %11, %10 ]
  ret i32 %13
}

; Function Attrs: mustprogress nounwind uwtable
define linkonce_odr hidden noundef i32 @_ZNK8Interval4fromEv(ptr noundef nonnull align 8 dereferenceable(136) %0) #1 comdat align 2 {
  %2 = alloca ptr, align 8
  store ptr %0, ptr %2, align 8
  %3 = load ptr, ptr %2, align 8
  %4 = getelementptr inbounds %class.Interval, ptr %3, i32 0, i32 2
  %5 = load ptr, ptr %4, align 8
  %6 = call noundef i32 @_ZNK5Range4fromEv(ptr noundef nonnull align 8 dereferenceable(16) %5)
  ret i32 %6
}

; Function Attrs: mustprogress nounwind uwtable
define hidden noundef i32 @_ZNK8Interval14previous_usageE15IntervalUseKindi(ptr noundef nonnull align 8 dereferenceable(136) %0, i32 noundef %1, i32 noundef %2) #1 align 2 {
  %4 = alloca i32, align 4
  %5 = alloca ptr, align 8
  %6 = alloca i32, align 4
  %7 = alloca i32, align 4
  %8 = alloca i32, align 4
  %9 = alloca i32, align 4
  store ptr %0, ptr %5, align 8
  store i32 %1, ptr %6, align 4
  store i32 %2, ptr %7, align 4
  %10 = load ptr, ptr %5, align 8
  store i32 0, ptr %8, align 4
  %11 = getelementptr inbounds %class.Interval, ptr %10, i32 0, i32 3
  %12 = call noundef i32 @_ZNK17GrowableArrayBase6lengthEv(ptr noundef nonnull align 4 dereferenceable(8) %11)
  %13 = sub nsw i32 %12, 2
  store i32 %13, ptr %9, align 4
  br label %14

14:                                               ; preds = %40, %3
  %15 = load i32, ptr %9, align 4
  %16 = icmp sge i32 %15, 0
  br i1 %16, label %17, label %43

17:                                               ; preds = %14
  %18 = getelementptr inbounds %class.Interval, ptr %10, i32 0, i32 3
  %19 = load i32, ptr %9, align 4
  %20 = call noundef nonnull align 4 dereferenceable(4) ptr @_ZNK17GrowableArrayViewIiE2atEi(ptr noundef nonnull align 8 dereferenceable(16) %18, i32 noundef %19)
  %21 = load i32, ptr %20, align 4
  %22 = load i32, ptr %7, align 4
  %23 = icmp sgt i32 %21, %22
  br i1 %23, label %24, label %26

24:                                               ; preds = %17
  %25 = load i32, ptr %8, align 4
  store i32 %25, ptr %4, align 4
  br label %45

26:                                               ; preds = %17
  %27 = getelementptr inbounds %class.Interval, ptr %10, i32 0, i32 3
  %28 = load i32, ptr %9, align 4
  %29 = add nsw i32 %28, 1
  %30 = call noundef nonnull align 4 dereferenceable(4) ptr @_ZNK17GrowableArrayViewIiE2atEi(ptr noundef nonnull align 8 dereferenceable(16) %27, i32 noundef %29)
  %31 = load i32, ptr %30, align 4
  %32 = load i32, ptr %6, align 4
  %33 = icmp sge i32 %31, %32
  br i1 %33, label %34, label %39

34:                                               ; preds = %26
  %35 = getelementptr inbounds %class.Interval, ptr %10, i32 0, i32 3
  %36 = load i32, ptr %9, align 4
  %37 = call noundef nonnull align 4 dereferenceable(4) ptr @_ZNK17GrowableArrayViewIiE2atEi(ptr noundef nonnull align 8 dereferenceable(16) %35, i32 noundef %36)
  %38 = load i32, ptr %37, align 4
  store i32 %38, ptr %8, align 4
  br label %39

39:                                               ; preds = %34, %26
  br label %40

40:                                               ; preds = %39
  %41 = load i32, ptr %9, align 4
  %42 = sub nsw i32 %41, 2
  store i32 %42, ptr %9, align 4
  br label %14, !llvm.loop !95

43:                                               ; preds = %14
  %44 = load i32, ptr %8, align 4
  store i32 %44, ptr %4, align 4
  br label %45

45:                                               ; preds = %43, %24
  %46 = load i32, ptr %4, align 4
  ret i32 %46
}

; Function Attrs: mustprogress nounwind uwtable
define hidden void @_ZN16LinearScanWalker37split_when_partial_register_availableEP8Intervali(ptr noundef nonnull align 8 dereferenceable(1384) %0, ptr noundef %1, i32 noundef %2) #1 align 2 {
  %4 = alloca ptr, align 8
  %5 = alloca ptr, align 8
  %6 = alloca i32, align 4
  %7 = alloca i32, align 4
  %8 = alloca i32, align 4
  store ptr %0, ptr %4, align 8
  store ptr %1, ptr %5, align 8
  store i32 %2, ptr %6, align 4
  %9 = load ptr, ptr %4, align 8
  %10 = load ptr, ptr %5, align 8
  %11 = load i32, ptr %6, align 4
  %12 = call noundef i32 @_ZNK8Interval14previous_usageE15IntervalUseKindi(ptr noundef nonnull align 8 dereferenceable(136) %10, i32 noundef 2, i32 noundef %11)
  %13 = load ptr, ptr %5, align 8
  %14 = call noundef i32 @_ZNK8Interval4fromEv(ptr noundef nonnull align 8 dereferenceable(136) %13)
  %15 = add nsw i32 %14, 1
  %16 = call noundef i32 @_Z4MAX2IiET_S0_S0_(i32 noundef %12, i32 noundef %15)
  store i32 %16, ptr %7, align 4
  %17 = load i32, ptr %6, align 4
  store i32 %17, ptr %8, align 4
  %18 = load ptr, ptr %5, align 8
  %19 = load i32, ptr %7, align 4
  %20 = load i32, ptr %8, align 4
  call void @_ZN16LinearScanWalker18split_before_usageEP8Intervalii(ptr noundef nonnull align 8 dereferenceable(1384) %9, ptr noundef %18, i32 noundef %19, i32 noundef %20)
  ret void
}