; Function Attrs: mustprogress nounwind uwtable
define hidden void @_ZN16LinearScanWalker37split_when_partial_register_availableEP8Intervali(ptr nocapture noundef nonnull align 8 dereferenceable(1384) %0, ptr noundef %1, i32 noundef %2) local_unnamed_addr #0 align 2 {
  %4 = getelementptr inbounds i8, ptr %1, i64 16
  %5 = load i32, ptr %4, align 4
  %6 = icmp sgt i32 %5, 1
  br i1 %6, label %.lr.ph.i, label %_ZNK8Interval14previous_usageE15IntervalUseKindi.exit

.lr.ph.i:                                         ; preds = %3
  %7 = getelementptr inbounds i8, ptr %1, i64 24
  %8 = load ptr, ptr %7, align 8
  %invariant.gep.i = getelementptr i8, ptr %8, i64 -4
  %9 = zext nneg i32 %5 to i64
  br label %10

10:                                               ; preds = %14, %.lr.ph.i
  %indvars.iv.i = phi i64 [ %9, %.lr.ph.i ], [ %indvars.iv.next.i, %14 ]
  %.01013.i = phi i32 [ 0, %.lr.ph.i ], [ %spec.select.i, %14 ]
  %indvars.iv.next.i = add nsw i64 %indvars.iv.i, -2
  %11 = getelementptr inbounds i32, ptr %8, i64 %indvars.iv.next.i
  %12 = load i32, ptr %11, align 4
  %13 = icmp sgt i32 %12, %2
  br i1 %13, label %_ZNK8Interval14previous_usageE15IntervalUseKindi.exit, label %14

14:                                               ; preds = %10
  %gep.i = getelementptr i32, ptr %invariant.gep.i, i64 %indvars.iv.i
  %15 = load i32, ptr %gep.i, align 4
  %.not.i = icmp slt i32 %15, 2
  %spec.select.i = select i1 %.not.i, i32 %.01013.i, i32 %12
  %16 = icmp ugt i64 %indvars.iv.i, 3
  br i1 %16, label %10, label %_ZNK8Interval14previous_usageE15IntervalUseKindi.exit, !llvm.loop !102

_ZNK8Interval14previous_usageE15IntervalUseKindi.exit: ; preds = %10, %14, %3
  %.010.lcssa.i = phi i32 [ 0, %3 ], [ %.01013.i, %10 ], [ %spec.select.i, %14 ]
  %17 = getelementptr inbounds i8, ptr %1, i64 8
  %18 = load ptr, ptr %17, align 8
  %19 = load i32, ptr %18, align 8
  %20 = add nsw i32 %19, 1
  %21 = tail call noundef i32 @llvm.smax.i32(i32 %.010.lcssa.i, i32 %20)
  tail call void @_ZN16LinearScanWalker18split_before_usageEP8Intervalii(ptr noundef nonnull align 8 dereferenceable(1384) %0, ptr noundef nonnull %1, i32 noundef %21, i32 noundef %2)
  ret void
}